; Function Attrs: mustprogress uwtable
define noundef ptr @_ZN21ConversationDataModel10itemForRowEi(ptr noundef nonnull align 8 dereferenceable(120) %0, i32 noundef %1) local_unnamed_addr #0 align 2 {
  %3 = alloca %class.QModelIndex, align 8
  %4 = icmp slt i32 %1, 0
  br i1 %4, label %.critedge, label %5

5:                                                ; preds = %2
  store i32 -1, ptr %3, align 8
  %6 = getelementptr inbounds i8, ptr %3, i64 4
  store i32 -1, ptr %6, align 4
  %7 = getelementptr inbounds i8, ptr %3, i64 8
  call void @llvm.memset.p0.i64(ptr noundef nonnull align 8 dereferenceable(16) %7, i8 0, i64 16, i1 false)
  %8 = load ptr, ptr %0, align 8
  %9 = getelementptr inbounds i8, ptr %8, i64 120
  %10 = load ptr, ptr %9, align 8
  %11 = call noundef i32 %10(ptr noundef nonnull align 8 dereferenceable(120) %0, ptr noundef nonnull align 8 dereferenceable(24) %3)
  %.not = icmp sgt i32 %11, %1
  br i1 %.not, label %12, label %.critedge

12:                                               ; preds = %5
  %13 = getelementptr inbounds i8, ptr %0, i64 24
  %14 = load ptr, ptr %13, align 8
  %15 = load ptr, ptr %14, align 8
  %16 = zext nneg i32 %1 to i64
  %17 = getelementptr %struct._conversation_item_t, ptr %15, i64 %16
  br label %.critedge

.critedge:                                        ; preds = %5, %2, %12
  %.0 = phi ptr [ %17, %12 ], [ null, %2 ], [ null, %5 ]
  ret ptr %.0
}